target datalayout = "e-m:e-p270:32:32-p271:32:32-p272:64:64-i64:64-i128:128-f80:128-n8:16:32:64-S128"
target triple = "x86_64-pc-linux-gnu"

%struct.Vmem = type { ptr, i64, i64 }
%union.SourceSpan = type { i64 }
%struct.Ast_ = type { %union.SourceSpan, i32, i8, %union.anon.61 }
%union.anon.61 = type { %struct.AstDocDirective_ }
%struct.AstDocDirective_ = type { i8, %union.anon.64 }
%union.anon.64 = type { %struct.anon.65 }
%struct.anon.65 = type { ptr, %union.SourceSpan, i8 }
%struct.AstForStmt = type { %struct.FlowCommon, %union.anon.70 }
%struct.FlowCommon = type { i32, i8 }
%union.anon.70 = type { %struct.anon.72 }
%struct.anon.72 = type { ptr, ptr }
%struct.AstContinueBreakStmt = type { i8, i32, %union.anon.63 }
%union.anon.63 = type { %struct.Label }
%struct.Label = type { ptr, %union.SourceSpan }

@.str.2 = private unnamed_addr constant [4 x i8] c"jmp\00", align 1
@.str.9 = private unnamed_addr constant [36 x i8] c"FATAL ERROR %s -> in %s @ in %s:%d \00", align 1
@.str.10 = private unnamed_addr constant [22 x i8] c"Should be unreachable\00", align 1
@.str.11 = private unnamed_addr constant [118 x i8] c"generated/home/dtcxzyw/WorkSpace/Projects/compilers/llvm-opt-benchmark/bench/c3c/c3c/src/compiler/llvm_codegen_stmt.c\00", align 1
@__func__.llvm_emit_continue = private unnamed_addr constant [19 x i8] c"llvm_emit_continue\00", align 1
@ast_arena = external global %struct.Vmem, align 8

; Function Attrs: nounwind uwtable
define dso_local void @llvm_emit_jmp(ptr noundef %0, ptr noundef %1) #0 {
  %3 = alloca ptr, align 8
  %4 = alloca ptr, align 8
  %5 = alloca ptr, align 8
  store ptr %0, ptr %3, align 8
  store ptr %1, ptr %4, align 8
  %6 = load ptr, ptr %3, align 8
  %7 = load ptr, ptr %4, align 8
  call void @llvm_emit_br(ptr noundef %6, ptr noundef %7)
  %8 = load ptr, ptr %3, align 8
  %9 = call ptr @llvm_basic_block_new(ptr noundef %8, ptr noundef @.str.2)
  store ptr %9, ptr %5, align 8
  %10 = load ptr, ptr %3, align 8
  %11 = load ptr, ptr %5, align 8
  call void @llvm_emit_block(ptr noundef %10, ptr noundef %11)
  ret void
}

; Function Attrs: nounwind uwtable
define internal ptr @astptr(i32 noundef %0) #0 {
  %2 = alloca i32, align 4
  store i32 %0, ptr %2, align 4
  %3 = load ptr, ptr @ast_arena, align 8
  %4 = load i32, ptr %2, align 4
  %5 = zext i32 %4 to i64
  %6 = getelementptr inbounds %struct.Ast_, ptr %3, i64 %5
  ret ptr %6
}

; Function Attrs: nounwind uwtable
define dso_local void @llvm_emit_continue(ptr noundef %0, ptr noundef %1) #0 {
  %3 = alloca ptr, align 8
  %4 = alloca ptr, align 8
  %5 = alloca ptr, align 8
  %6 = alloca i32, align 4
  %7 = alloca ptr, align 8
  %8 = alloca ptr, align 8
  %9 = alloca ptr, align 8
  %10 = alloca ptr, align 8
  store ptr %0, ptr %7, align 8
  store ptr %1, ptr %8, align 8
  %11 = load ptr, ptr %7, align 8
  %12 = load ptr, ptr %8, align 8
  %13 = getelementptr inbounds %struct.Ast_, ptr %12, i32 0, i32 3
  %14 = getelementptr inbounds %struct.AstContinueBreakStmt, ptr %13, i32 0, i32 1
  %15 = load i32, ptr %14, align 4
  store ptr %11, ptr %5, align 8
  store i32 %15, ptr %6, align 4
  br label %16

16:                                               ; preds = %19, %2
  %17 = load i32, ptr %6, align 4
  %18 = icmp ne i32 %17, 0
  br i1 %18, label %19, label %29

19:                                               ; preds = %16
  %20 = load ptr, ptr %5, align 8
  store ptr %6, ptr %3, align 8
  %21 = load ptr, ptr %3, align 8
  %22 = load i32, ptr %21, align 4
  %23 = call ptr @astptr(i32 noundef %22)
  store ptr %23, ptr %4, align 8
  %24 = load ptr, ptr %4, align 8
  %25 = getelementptr inbounds %struct.Ast_, ptr %24, i32 0, i32 1
  %26 = load i32, ptr %25, align 8
  %27 = load ptr, ptr %3, align 8
  store i32 %26, ptr %27, align 4
  %28 = load ptr, ptr %4, align 8
  call void @llvm_emit_stmt(ptr noundef %20, ptr noundef %28)
  br label %16, !llvm.loop !18

29:                                               ; preds = %16
  %30 = load ptr, ptr %8, align 8
  %31 = getelementptr inbounds %struct.Ast_, ptr %30, i32 0, i32 3
  %32 = getelementptr inbounds %struct.AstContinueBreakStmt, ptr %31, i32 0, i32 2
  %33 = load i32, ptr %32, align 8
  %34 = call ptr @astptr(i32 noundef %33)
  store ptr %34, ptr %9, align 8
  %35 = load ptr, ptr %9, align 8
  %36 = getelementptr inbounds %struct.Ast_, ptr %35, i32 0, i32 2
  %37 = load i8, ptr %36, align 4
  %38 = zext i8 %37 to i32
  switch i32 %38, label %48 [
    i32 23, label %39
    i32 27, label %39
    i32 21, label %39
    i32 20, label %42
  ]

39:                                               ; preds = %29, %29, %29
  br label %40

40:                                               ; preds = %39
  call void (ptr, ...) @error_exit(ptr noundef @.str.9, ptr noundef @.str.10, ptr noundef @__func__.llvm_emit_continue, ptr noundef @.str.11, i32 noundef 935) #8
  unreachable

41:                                               ; No predecessors!
  br label %51

42:                                               ; preds = %29
  %43 = load ptr, ptr %9, align 8
  %44 = getelementptr inbounds %struct.Ast_, ptr %43, i32 0, i32 3
  %45 = getelementptr inbounds %struct.AstForStmt, ptr %44, i32 0, i32 1
  %46 = getelementptr inbounds %struct.anon.72, ptr %45, i32 0, i32 0
  %47 = load ptr, ptr %46, align 8
  store ptr %47, ptr %10, align 8
  br label %51

48:                                               ; preds = %29
  br label %49

49:                                               ; preds = %48
  call void (ptr, ...) @error_exit(ptr noundef @.str.9, ptr noundef @.str.10, ptr noundef @__func__.llvm_emit_continue, ptr noundef @.str.11, i32 noundef 941) #8
  unreachable

50:                                               ; No predecessors!
  br label %51

51:                                               ; preds = %50, %42, %41
  %52 = load ptr, ptr %7, align 8
  %53 = load ptr, ptr %10, align 8
  call void @llvm_emit_jmp(ptr noundef %52, ptr noundef %53)
  ret void
}