; Function Attrs: nounwind uwtable
define dso_local void @llvm_emit_continue(ptr noundef %0, ptr nocapture noundef readonly %1) local_unnamed_addr #0 {
  %3 = getelementptr inbounds i8, ptr %1, i64 20
  %4 = load i32, ptr %3, align 4
  %.not13 = icmp eq i32 %4, 0
  br i1 %.not13, label %._crit_edge, label %.lr.ph

.lr.ph:                                           ; preds = %2, %.lr.ph
  %.014 = phi i32 [ %9, %.lr.ph ], [ %4, %2 ]
  %5 = load ptr, ptr @ast_arena, align 8
  %6 = zext i32 %.014 to i64
  %7 = getelementptr inbounds %struct.Ast_, ptr %5, i64 %6
  %8 = getelementptr inbounds i8, ptr %7, i64 8
  %9 = load i32, ptr %8, align 8
  tail call void @llvm_emit_stmt(ptr noundef %0, ptr noundef nonnull %7)
  %.not = icmp eq i32 %9, 0
  br i1 %.not, label %._crit_edge, label %.lr.ph, !llvm.loop !25

._crit_edge:                                      ; preds = %.lr.ph, %2
  %10 = getelementptr inbounds i8, ptr %1, i64 24
  %11 = load i32, ptr %10, align 8
  %12 = load ptr, ptr @ast_arena, align 8
  %13 = zext i32 %11 to i64
  %14 = getelementptr inbounds %struct.Ast_, ptr %12, i64 %13
  %15 = getelementptr inbounds i8, ptr %14, i64 12
  %16 = load i8, ptr %15, align 4
  switch i8 %16, label %22 [
    i8 23, label %17
    i8 27, label %17
    i8 21, label %17
    i8 20, label %18
  ]

17:                                               ; preds = %._crit_edge, %._crit_edge, %._crit_edge
  tail call void (ptr, ...) @error_exit(ptr noundef nonnull @.str.9, ptr noundef nonnull @.str.10, ptr noundef nonnull @__func__.llvm_emit_continue, ptr noundef nonnull @.str.11, i32 noundef 935) #10
  unreachable

18:                                               ; preds = %._crit_edge
  %19 = getelementptr inbounds i8, ptr %14, i64 24
  %20 = load ptr, ptr %19, align 8
  tail call void @llvm_emit_br(ptr noundef %0, ptr noundef %20) #9
  %21 = tail call ptr @llvm_basic_block_new(ptr noundef %0, ptr noundef nonnull @.str.2) #9
  tail call void @llvm_emit_block(ptr noundef %0, ptr noundef %21) #9
  ret void

22:                                               ; preds = %._crit_edge
  tail call void (ptr, ...) @error_exit(ptr noundef nonnull @.str.9, ptr noundef nonnull @.str.10, ptr noundef nonnull @__func__.llvm_emit_continue, ptr noundef nonnull @.str.11, i32 noundef 941) #10
  unreachable
}